; Function Attrs: nounwind uwtable
define nonnull ptr @Acb_ObjCollectTfo(ptr noundef initializes((540, 544)) %0, i32 noundef %1, i32 noundef %2) local_unnamed_addr #0 {
  %4 = getelementptr inbounds nuw i8, ptr %0, i64 540
  store i32 0, ptr %4, align 4, !tbaa !27
  %5 = getelementptr i8, ptr %0, i64 260
  %.val.i = load i32, ptr %5, align 4, !tbaa !27
  %6 = icmp slt i32 %.val.i, 1
  br i1 %6, label %7, label %Acb_NtkIncTravId.exit

7:                                                ; preds = %3
  %8 = getelementptr inbounds nuw i8, ptr %0, i64 256
  %9 = getelementptr inbounds nuw i8, ptr %0, i64 112
  %.val.i.i = load i32, ptr %9, align 8, !tbaa !29
  %10 = load i32, ptr %8, align 8, !tbaa !28
  %.not.i.i.i.i = icmp slt i32 %10, %.val.i.i
  br i1 %.not.i.i.i.i, label %11, label %Vec_IntGrow.exit.i.i.i

11:                                               ; preds = %7
  %12 = getelementptr inbounds nuw i8, ptr %0, i64 264
  %13 = load ptr, ptr %12, align 8, !tbaa !21
  %.not9.i.i.i.i = icmp eq ptr %13, null
  %14 = sext i32 %.val.i.i to i64
  %15 = shl nsw i64 %14, 2
  br i1 %.not9.i.i.i.i, label %18, label %16

16:                                               ; preds = %11
  %17 = tail call ptr @realloc(ptr noundef nonnull %13, i64 noundef %15) #25
  br label %20

18:                                               ; preds = %11
  %19 = tail call noalias ptr @malloc(i64 noundef %15) #26
  br label %20

20:                                               ; preds = %18, %16
  %21 = phi ptr [ %17, %16 ], [ %19, %18 ]
  store ptr %21, ptr %12, align 8, !tbaa !21
  store i32 %.val.i.i, ptr %8, align 8, !tbaa !28
  br label %Vec_IntGrow.exit.i.i.i

Vec_IntGrow.exit.i.i.i:                           ; preds = %20, %7
  %22 = icmp sgt i32 %.val.i.i, 0
  br i1 %22, label %.lr.ph.i.i.i, label %Acb_NtkCleanObjTravs.exit.i

.lr.ph.i.i.i:                                     ; preds = %Vec_IntGrow.exit.i.i.i
  %23 = getelementptr inbounds nuw i8, ptr %0, i64 264
  %24 = load ptr, ptr %23, align 8, !tbaa !21
  %wide.trip.count.i.i.i = zext nneg i32 %.val.i.i to i64
  %25 = shl nuw nsw i64 %wide.trip.count.i.i.i, 2
  tail call void @llvm.memset.p0.i64(ptr align 4 %24, i8 0, i64 %25, i1 false), !tbaa !22
  br label %Acb_NtkCleanObjTravs.exit.i

Acb_NtkCleanObjTravs.exit.i:                      ; preds = %.lr.ph.i.i.i, %Vec_IntGrow.exit.i.i.i
  store i32 %.val.i.i, ptr %5, align 4, !tbaa !27
  br label %Acb_NtkIncTravId.exit

Acb_NtkIncTravId.exit:                            ; preds = %3, %Acb_NtkCleanObjTravs.exit.i
  %26 = getelementptr inbounds nuw i8, ptr %0, i64 96
  %27 = load i32, ptr %26, align 8, !tbaa !3
  %28 = add nsw i32 %27, 1
  store i32 %28, ptr %26, align 8, !tbaa !3
  %29 = icmp sgt i32 %1, 0
  br i1 %29, label %33, label %.preheader

.preheader:                                       ; preds = %Acb_NtkIncTravId.exit
  %30 = getelementptr i8, ptr %0, i64 28
  %.val16 = load i32, ptr %30, align 4, !tbaa !27
  %31 = icmp sgt i32 %.val16, 0
  br i1 %31, label %.lr.ph, label %.critedge

.lr.ph:                                           ; preds = %.preheader
  %32 = getelementptr i8, ptr %0, i64 32
  br label %34

33:                                               ; preds = %Acb_NtkIncTravId.exit
  tail call void @Acb_ObjCollectTfo_rec(ptr noundef nonnull %0, i32 noundef %1, i32 noundef %2)
  br label %.critedge

34:                                               ; preds = %.lr.ph, %34
  %indvars.iv = phi i64 [ 0, %.lr.ph ], [ %indvars.iv.next, %34 ]
  %.val15 = load ptr, ptr %32, align 8, !tbaa !21
  %35 = getelementptr inbounds nuw i32, ptr %.val15, i64 %indvars.iv
  %36 = load i32, ptr %35, align 4, !tbaa !22
  tail call void @Acb_ObjCollectTfo_rec(ptr noundef nonnull %0, i32 noundef %36, i32 noundef %2)
  %indvars.iv.next = add nuw nsw i64 %indvars.iv, 1
  %.val = load i32, ptr %30, align 4, !tbaa !27
  %37 = sext i32 %.val to i64
  %38 = icmp slt i64 %indvars.iv.next, %37
  br i1 %38, label %34, label %.critedge, !llvm.loop !35

.critedge:                                        ; preds = %34, %.preheader, %33
  %39 = getelementptr inbounds nuw i8, ptr %0, i64 536
  ret ptr %39
}